target datalayout = "e-m:e-p270:32:32-p271:32:32-p272:64:64-i64:64-i128:128-f80:128-n8:16:32:64-S128"
target triple = "x86_64-pc-linux-gnu"

%"struct.icu_77::LSR" = type <{ ptr, ptr, ptr, ptr, i32, i32, i32, [4 x i8] }>

; Function Attrs: mustprogress uwtable
define noundef nonnull align 8 dereferenceable(48) ptr @_ZN6icu_773LSR11setHashCodeEv(ptr noundef nonnull align 8 dereferenceable(48) %0) #1 align 2 {
  %2 = alloca ptr, align 8
  %3 = alloca i32, align 4
  store ptr %0, ptr %2, align 8, !tbaa !23
  %4 = load ptr, ptr %2, align 8
  %5 = getelementptr inbounds nuw %"struct.icu_77::LSR", ptr %4, i32 0, i32 6
  %6 = load i32, ptr %5, align 8, !tbaa !33
  %7 = icmp eq i32 %6, 0
  br i1 %7, label %8, label %37

8:                                                ; preds = %1
  call void @llvm.lifetime.start.p0(i64 4, ptr %3) #10
  %9 = getelementptr inbounds nuw %"struct.icu_77::LSR", ptr %4, i32 0, i32 0
  %10 = load ptr, ptr %9, align 8, !tbaa !26
  %11 = getelementptr inbounds nuw %"struct.icu_77::LSR", ptr %4, i32 0, i32 0
  %12 = load ptr, ptr %11, align 8, !tbaa !26
  %13 = call i64 @strlen(ptr noundef %12) #13
  %14 = trunc i64 %13 to i32
  %15 = call i32 @ustr_hashCharsN_77(ptr noundef %10, i32 noundef %14)
  store i32 %15, ptr %3, align 4, !tbaa !14
  %16 = load i32, ptr %3, align 4, !tbaa !14
  %17 = mul i32 %16, 37
  %18 = getelementptr inbounds nuw %"struct.icu_77::LSR", ptr %4, i32 0, i32 1
  %19 = load ptr, ptr %18, align 8, !tbaa !28
  %20 = getelementptr inbounds nuw %"struct.icu_77::LSR", ptr %4, i32 0, i32 1
  %21 = load ptr, ptr %20, align 8, !tbaa !28
  %22 = call i64 @strlen(ptr noundef %21) #13
  %23 = trunc i64 %22 to i32
  %24 = call i32 @ustr_hashCharsN_77(ptr noundef %19, i32 noundef %23)
  %25 = add i32 %17, %24
  store i32 %25, ptr %3, align 4, !tbaa !14
  %26 = load i32, ptr %3, align 4, !tbaa !14
  %27 = mul i32 %26, 37
  %28 = getelementptr inbounds nuw %"struct.icu_77::LSR", ptr %4, i32 0, i32 4
  %29 = load i32, ptr %28, align 8, !tbaa !31
  %30 = add i32 %27, %29
  store i32 %30, ptr %3, align 4, !tbaa !14
  %31 = load i32, ptr %3, align 4, !tbaa !14
  %32 = mul i32 %31, 37
  %33 = getelementptr inbounds nuw %"struct.icu_77::LSR", ptr %4, i32 0, i32 5
  %34 = load i32, ptr %33, align 4, !tbaa !32
  %35 = add i32 %32, %34
  %36 = getelementptr inbounds nuw %"struct.icu_77::LSR", ptr %4, i32 0, i32 6
  store i32 %35, ptr %36, align 8, !tbaa !33
  call void @llvm.lifetime.end.p0(i64 4, ptr %3) #10
  br label %37

37:                                               ; preds = %8, %1
  ret ptr %4
}