; Function Attrs: mustprogress uwtable
define noundef nonnull align 8 dereferenceable(48) ptr @_ZN6icu_773LSR11setHashCodeEv(ptr noundef nonnull returned align 8 dereferenceable(48) %0) local_unnamed_addr #1 align 2 {
  %2 = getelementptr inbounds nuw i8, ptr %0, i64 40
  %3 = load i32, ptr %2, align 8, !tbaa !21
  %4 = icmp eq i32 %3, 0
  br i1 %4, label %5, label %25

5:                                                ; preds = %1
  %6 = load ptr, ptr %0, align 8, !tbaa !24
  %7 = tail call i64 @strlen(ptr noundef nonnull dereferenceable(1) %6) #19
  %8 = trunc i64 %7 to i32
  %9 = tail call i32 @ustr_hashCharsN_77(ptr noundef nonnull %6, i32 noundef %8)
  %10 = mul i32 %9, 37
  %11 = getelementptr inbounds nuw i8, ptr %0, i64 8
  %12 = load ptr, ptr %11, align 8, !tbaa !25
  %13 = tail call i64 @strlen(ptr noundef nonnull dereferenceable(1) %12) #19
  %14 = trunc i64 %13 to i32
  %15 = tail call i32 @ustr_hashCharsN_77(ptr noundef nonnull %12, i32 noundef %14)
  %16 = add i32 %15, %10
  %17 = mul i32 %16, 37
  %18 = getelementptr inbounds nuw i8, ptr %0, i64 32
  %19 = load i32, ptr %18, align 8, !tbaa !19
  %20 = add i32 %17, %19
  %21 = mul i32 %20, 37
  %22 = getelementptr inbounds nuw i8, ptr %0, i64 36
  %23 = load i32, ptr %22, align 4, !tbaa !20
  %24 = add i32 %21, %23
  store i32 %24, ptr %2, align 8, !tbaa !21
  br label %25

25:                                               ; preds = %5, %1
  ret ptr %0
}